; Function Attrs: mustprogress null_pointer_is_valid sspstrong uwtable
define void @_ZN23ResolvedAddressesDialog30on_txtSearchFilter_textChangedE7QString(ptr noundef readonly align 8 captures(none) dereferenceable_or_null(176) %0, ptr noundef readnone captures(none) %1) local_unnamed_addr #2 align 2 personality ptr @__gxx_personality_v0 {
  %3 = alloca %class.QString, align 8
  call void @llvm.lifetime.start.p0(i64 24, ptr nonnull %3) #18
  %4 = getelementptr inbounds nuw i8, ptr %0, i64 72
  %5 = load ptr, ptr %4, align 8
  %6 = getelementptr inbounds nuw i8, ptr %5, i64 120
  %7 = load ptr, ptr %6, align 8
  call void @_ZNK9QLineEdit4textEv(ptr dead_on_unwind nonnull writable sret(%class.QString) align 8 %3, ptr noundef align 8 dereferenceable_or_null(40) %7)
  %8 = getelementptr inbounds nuw i8, ptr %0, i64 144
  %9 = load ptr, ptr %8, align 8
  %.not = icmp eq ptr %9, null
  br i1 %.not, label %22, label %10

10:                                               ; preds = %2
  %11 = getelementptr inbounds nuw i8, ptr %3, i64 16
  %12 = load i64, ptr %11, align 8
  %13 = icmp ne i64 %12, 0
  %14 = icmp slt i64 %12, 3
  %or.cond = and i1 %13, %14
  br i1 %or.cond, label %22, label %21

15:                                               ; preds = %21
  %16 = landingpad { ptr, i32 }
          cleanup
  %17 = load ptr, ptr %3, align 8
  %.not.i.i.i = icmp eq ptr %17, null
  br i1 %.not.i.i.i, label %_ZN7QStringD2Ev.exit, label %_ZN17QArrayDataPointerIDsE5derefEv.exit.i.i

_ZN17QArrayDataPointerIDsE5derefEv.exit.i.i:      ; preds = %15
  %18 = atomicrmw sub ptr %17, i32 1 seq_cst, align 4
  %.not.i.i = icmp eq i32 %18, 1
  br i1 %.not.i.i, label %19, label %_ZN7QStringD2Ev.exit

19:                                               ; preds = %_ZN17QArrayDataPointerIDsE5derefEv.exit.i.i
  %20 = load ptr, ptr %3, align 8
  call void @_ZN10QArrayData10deallocateEPS_xx(ptr noundef %20, i64 noundef 2, i64 noundef 8) #18
  br label %_ZN7QStringD2Ev.exit

_ZN7QStringD2Ev.exit:                             ; preds = %15, %_ZN17QArrayDataPointerIDsE5derefEv.exit.i.i, %19
  call void @llvm.lifetime.end.p0(i64 24, ptr nonnull %3) #18
  resume { ptr, i32 } %16

21:                                               ; preds = %10
  invoke void @_ZN35AStringListListSortFilterProxyModel9setFilterERK7QString(ptr noundef nonnull align 8 dereferenceable_or_null(120) %9, ptr noundef nonnull align 8 dereferenceable(24) %3)
          to label %22 unwind label %15

22:                                               ; preds = %10, %21, %2
  %23 = load ptr, ptr %3, align 8
  %.not.i.i.i2 = icmp eq ptr %23, null
  br i1 %.not.i.i.i2, label %_ZN7QStringD2Ev.exit5, label %_ZN17QArrayDataPointerIDsE5derefEv.exit.i.i3

_ZN17QArrayDataPointerIDsE5derefEv.exit.i.i3:     ; preds = %22
  %24 = atomicrmw sub ptr %23, i32 1 seq_cst, align 4
  %.not.i.i4 = icmp eq i32 %24, 1
  br i1 %.not.i.i4, label %25, label %_ZN7QStringD2Ev.exit5

25:                                               ; preds = %_ZN17QArrayDataPointerIDsE5derefEv.exit.i.i3
  %26 = load ptr, ptr %3, align 8
  call void @_ZN10QArrayData10deallocateEPS_xx(ptr noundef %26, i64 noundef 2, i64 noundef 8) #18
  br label %_ZN7QStringD2Ev.exit5

_ZN7QStringD2Ev.exit5:                            ; preds = %22, %_ZN17QArrayDataPointerIDsE5derefEv.exit.i.i3, %25
  call void @llvm.lifetime.end.p0(i64 24, ptr nonnull %3) #18
  ret void
}